; Function Attrs: mustprogress sspstrong uwtable
define internal void @_ZL27__itt_region_begin_init_3_0PK13___itt_domain9___itt_idS2_P20___itt_string_handle(ptr noundef %0, ptr noundef readonly byval(%struct.___itt_id) align 8 captures(none) %1, ptr noundef readonly byval(%struct.___itt_id) align 8 captures(none) %2, ptr noundef %3) #0 {
  %5 = load volatile i64, ptr getelementptr inbounds nuw (i8, ptr @__itt__ittapi_global, i64 32), align 8, !tbaa !3
  %6 = icmp eq i64 %5, 0
  %7 = load ptr, ptr getelementptr inbounds nuw (i8, ptr @__itt__ittapi_global, i64 136), align 8
  %8 = icmp eq ptr %7, null
  %or.cond = select i1 %6, i1 %8, i1 false
  br i1 %or.cond, label %9, label %10

9:                                                ; preds = %4
  tail call void @ITT_DoOneTimeInitialization()
  br label %10

10:                                               ; preds = %9, %4
  %11 = load ptr, ptr @__itt_region_begin_ptr__3_0, align 8, !tbaa !21
  %12 = icmp ne ptr %11, null
  %13 = icmp ne ptr %11, @_ZL27__itt_region_begin_init_3_0PK13___itt_domain9___itt_idS2_P20___itt_string_handle
  %or.cond3 = and i1 %12, %13
  br i1 %or.cond3, label %14, label %15

14:                                               ; preds = %10
  tail call void %11(ptr noundef %0, ptr noundef nonnull byval(%struct.___itt_id) align 8 %1, ptr noundef nonnull byval(%struct.___itt_id) align 8 %2, ptr noundef %3)
  br label %15

15:                                               ; preds = %10, %14
  ret void
}